; ModuleID = 'bench/libsodium/original/core_hsalsa20.ll'
source_filename = "bench/libsodium/original/core_hsalsa20.ll"
target datalayout = "e-m:e-p270:32:32-p271:32:32-p272:64:64-i64:64-i128:128-f80:128-n8:16:32:64-S128"
target triple = "x86_64-pc-linux-gnu"

; Function Attrs: mustprogress nofree norecurse nosync nounwind ssp willreturn memory(none) uwtable
define dso_local noundef i64 @crypto_core_hsalsa20_outputbytes() local_unnamed_addr #0 {
  ret i64 32
}

; Function Attrs: mustprogress nofree norecurse nosync nounwind ssp willreturn memory(none) uwtable
define dso_local noundef i64 @crypto_core_hsalsa20_inputbytes() local_unnamed_addr #0 {
  ret i64 16
}

; Function Attrs: mustprogress nofree norecurse nosync nounwind ssp willreturn memory(none) uwtable
define dso_local noundef i64 @crypto_core_hsalsa20_keybytes() local_unnamed_addr #0 {
  ret i64 32
}

; Function Attrs: mustprogress nofree norecurse nosync nounwind ssp willreturn memory(none) uwtable
define dso_local noundef i64 @crypto_core_hsalsa20_constbytes() local_unnamed_addr #0 {
  ret i64 16
}


!llvm.module.flags = !{!0, !1, !2, !3}

!0 = !{i32 1, !"wchar_size", i32 4}
!1 = !{i32 8, !"PIC Level", i32 2}
!2 = !{i32 7, !"PIE Level", i32 2}
!3 = !{i32 7, !"uwtable", i32 2}
